target datalayout = "e-m:e-p270:32:32-p271:32:32-p272:64:64-i64:64-i128:128-f80:128-n8:16:32:64-S128"
target triple = "x86_64-pc-linux-gnu"

%struct.rb_compile_option_struct = type { i16, i32 }

@COMPILE_OPTION_DEFAULT = internal global { i8, i8, [2 x i8], i32 } { i8 -37, i8 2, [2 x i8] zeroinitializer, i32 0 }, align 4

; Function Attrs: nounwind sspstrong uwtable
define internal i64 @iseqw_s_compile_option_set(i64 noundef %0, i64 noundef %1) #0 {
  %3 = alloca i64, align 8
  %4 = alloca i64, align 8
  %5 = alloca %struct.rb_compile_option_struct, align 4
  store i64 %0, ptr %3, align 8, !tbaa !17
  store i64 %1, ptr %4, align 8, !tbaa !17
  call void @llvm.lifetime.start.p0(i64 8, ptr %5) #24
  %6 = load i64, ptr %4, align 8, !tbaa !17
  call void @make_compile_option(ptr noundef %5, i64 noundef %6)
  call void @llvm.memcpy.p0.p0.i64(ptr align 4 @COMPILE_OPTION_DEFAULT, ptr align 4 %5, i64 8, i1 false), !tbaa.struct !169
  %7 = load i64, ptr %4, align 8, !tbaa !17
  call void @llvm.lifetime.end.p0(i64 8, ptr %5) #24
  ret i64 %7
}