; Function Attrs: nounwind sspstrong uwtable
define internal noundef i64 @iseqw_s_compile_option_set(i64 %0, i64 noundef returned %1) #0 {
  %3 = alloca %struct.rb_compile_option_struct, align 8
  call void @llvm.lifetime.start.p0(i64 8, ptr nonnull %3) #20
  call fastcc void @make_compile_option(ptr noundef %3, i64 noundef %1)
  %4 = load i64, ptr %3, align 8
  store i64 %4, ptr @COMPILE_OPTION_DEFAULT, align 8
  call void @llvm.lifetime.end.p0(i64 8, ptr nonnull %3) #20
  ret i64 %1
}